target datalayout = "e-m:e-p270:32:32-p271:32:32-p272:64:64-i64:64-i128:128-f80:128-n8:16:32:64-S128"
target triple = "x86_64-unknown-linux-gnu"

%"class.cvc5::context::DefaultCleanUp" = type { i8 }
%"class.cvc5::context::DefaultCleanUp.40" = type { i8 }
%"class.cvc5::internal::theory::bv::BVSolverBitblast" = type { %"class.cvc5::internal::theory::bv::BVSolver", %"class.std::unique_ptr", %"class.std::unique_ptr.2", %"class.std::unique_ptr.10", %"class.std::unique_ptr.18", %"class.std::unique_ptr.26", %"class.cvc5::context::CDQueue", %"class.cvc5::context::CDQueue", %"class.cvc5::context::CDList.34", %"class.cvc5::context::CDList", %"class.std::unique_ptr.42", %"class.cvc5::internal::theory::bv::BVProofRuleChecker", %"class.cvc5::context::CDHashMap", %"class.cvc5::context::CDHashMap.55", i8, %"class.std::unique_ptr.74" }
%"class.cvc5::internal::theory::bv::BVSolver" = type { %"class.cvc5::internal::EnvObj", ptr, ptr }
%"class.cvc5::internal::EnvObj" = type { ptr, ptr }
%"class.std::unique_ptr" = type { %"struct.std::__uniq_ptr_data" }
%"struct.std::__uniq_ptr_data" = type { %"class.std::__uniq_ptr_impl" }
%"class.std::__uniq_ptr_impl" = type { %"class.std::tuple" }
%"class.std::tuple" = type { %"struct.std::_Tuple_impl" }
%"struct.std::_Tuple_impl" = type { %"struct.std::_Head_base.1" }
%"struct.std::_Head_base.1" = type { ptr }
%"class.std::unique_ptr.2" = type { %"struct.std::__uniq_ptr_data.3" }
%"struct.std::__uniq_ptr_data.3" = type { %"class.std::__uniq_ptr_impl.4" }
%"class.std::__uniq_ptr_impl.4" = type { %"class.std::tuple.5" }
%"class.std::tuple.5" = type { %"struct.std::_Tuple_impl.6" }
%"struct.std::_Tuple_impl.6" = type { %"struct.std::_Head_base.9" }
%"struct.std::_Head_base.9" = type { ptr }
%"class.std::unique_ptr.10" = type { %"struct.std::__uniq_ptr_data.11" }
%"struct.std::__uniq_ptr_data.11" = type { %"class.std::__uniq_ptr_impl.12" }
%"class.std::__uniq_ptr_impl.12" = type { %"class.std::tuple.13" }
%"class.std::tuple.13" = type { %"struct.std::_Tuple_impl.14" }
%"struct.std::_Tuple_impl.14" = type { %"struct.std::_Head_base.17" }
%"struct.std::_Head_base.17" = type { ptr }
%"class.std::unique_ptr.18" = type { %"struct.std::__uniq_ptr_data.19" }
%"struct.std::__uniq_ptr_data.19" = type { %"class.std::__uniq_ptr_impl.20" }
%"class.std::__uniq_ptr_impl.20" = type { %"class.std::tuple.21" }
%"class.std::tuple.21" = type { %"struct.std::_Tuple_impl.22" }
%"struct.std::_Tuple_impl.22" = type { %"struct.std::_Head_base.25" }
%"struct.std::_Head_base.25" = type { ptr }
%"class.std::unique_ptr.26" = type { %"struct.std::__uniq_ptr_data.27" }
%"struct.std::__uniq_ptr_data.27" = type { %"class.std::__uniq_ptr_impl.28" }
%"class.std::__uniq_ptr_impl.28" = type { %"class.std::tuple.29" }
%"class.std::tuple.29" = type { %"struct.std::_Tuple_impl.30" }
%"struct.std::_Tuple_impl.30" = type { %"struct.std::_Head_base.33" }
%"struct.std::_Head_base.33" = type { ptr }
%"class.cvc5::context::CDQueue" = type { %"class.cvc5::context::CDList.base", i64, i64 }
%"class.cvc5::context::CDList.base" = type <{ %"class.cvc5::context::ContextObj", %"class.std::vector", i64, i8, %"class.cvc5::context::DefaultCleanUp" }>
%"class.cvc5::context::ContextObj" = type { ptr, ptr, ptr, ptr, ptr }
%"class.std::vector" = type { %"struct.std::_Vector_base" }
%"struct.std::_Vector_base" = type { %"struct.std::_Vector_base<cvc5::internal::NodeTemplate<true>, std::allocator<cvc5::internal::NodeTemplate<true>>>::_Vector_impl" }
%"struct.std::_Vector_base<cvc5::internal::NodeTemplate<true>, std::allocator<cvc5::internal::NodeTemplate<true>>>::_Vector_impl" = type { %"struct.std::_Vector_base<cvc5::internal::NodeTemplate<true>, std::allocator<cvc5::internal::NodeTemplate<true>>>::_Vector_impl_data" }
%"struct.std::_Vector_base<cvc5::internal::NodeTemplate<true>, std::allocator<cvc5::internal::NodeTemplate<true>>>::_Vector_impl_data" = type { ptr, ptr, ptr }
%"class.cvc5::context::CDList.34" = type <{ %"class.cvc5::context::ContextObj", %"class.std::vector.35", i64, i8, %"class.cvc5::context::DefaultCleanUp.40", [6 x i8] }>
%"class.std::vector.35" = type { %"struct.std::_Vector_base.36" }
%"struct.std::_Vector_base.36" = type { %"struct.std::_Vector_base<cvc5::internal::prop::SatLiteral, std::allocator<cvc5::internal::prop::SatLiteral>>::_Vector_impl" }
%"struct.std::_Vector_base<cvc5::internal::prop::SatLiteral, std::allocator<cvc5::internal::prop::SatLiteral>>::_Vector_impl" = type { %"struct.std::_Vector_base<cvc5::internal::prop::SatLiteral, std::allocator<cvc5::internal::prop::SatLiteral>>::_Vector_impl_data" }
%"struct.std::_Vector_base<cvc5::internal::prop::SatLiteral, std::allocator<cvc5::internal::prop::SatLiteral>>::_Vector_impl_data" = type { ptr, ptr, ptr }
%"class.cvc5::context::CDList" = type <{ %"class.cvc5::context::ContextObj", %"class.std::vector", i64, i8, %"class.cvc5::context::DefaultCleanUp", [6 x i8] }>
%"class.std::unique_ptr.42" = type { %"struct.std::__uniq_ptr_data.43" }
%"struct.std::__uniq_ptr_data.43" = type { %"class.std::__uniq_ptr_impl.44" }
%"class.std::__uniq_ptr_impl.44" = type { %"class.std::tuple.45" }
%"class.std::tuple.45" = type { %"struct.std::_Tuple_impl.46" }
%"struct.std::_Tuple_impl.46" = type { %"struct.std::_Head_base.49" }
%"struct.std::_Head_base.49" = type { ptr }
%"class.cvc5::internal::theory::bv::BVProofRuleChecker" = type { %"class.cvc5::internal::ProofRuleChecker" }
%"class.cvc5::internal::ProofRuleChecker" = type { ptr }
%"class.cvc5::context::CDHashMap" = type { %"class.cvc5::context::ContextObj", %"class.std::unordered_map", ptr, ptr }
%"class.std::unordered_map" = type { %"class.std::_Hashtable" }
%"class.std::_Hashtable" = type { ptr, i64, %"struct.std::__detail::_Hash_node_base", i64, %"struct.std::__detail::_Prime_rehash_policy", ptr }
%"struct.std::__detail::_Hash_node_base" = type { ptr }
%"struct.std::__detail::_Prime_rehash_policy" = type { float, i64 }
%"class.cvc5::context::CDHashMap.55" = type { %"class.cvc5::context::ContextObj", %"class.std::unordered_map.56", ptr, ptr }
%"class.std::unordered_map.56" = type { %"class.std::_Hashtable.57" }
%"class.std::_Hashtable.57" = type { ptr, i64, %"struct.std::__detail::_Hash_node_base", i64, %"struct.std::__detail::_Prime_rehash_policy", ptr }
%"class.std::unique_ptr.74" = type { %"struct.std::__uniq_ptr_data.75" }
%"struct.std::__uniq_ptr_data.75" = type { %"class.std::__uniq_ptr_impl.76" }
%"class.std::__uniq_ptr_impl.76" = type { %"class.std::tuple.77" }
%"class.std::tuple.77" = type { %"struct.std::_Tuple_impl.78" }
%"struct.std::_Tuple_impl.78" = type { %"struct.std::_Head_base.81" }
%"struct.std::_Head_base.81" = type { ptr }
%"class.cvc5::internal::Options" = type { %"class.std::unique_ptr.129", %"class.std::unique_ptr.137", %"class.std::unique_ptr.145", %"class.std::unique_ptr.153", %"class.std::unique_ptr.161", %"class.std::unique_ptr.169", %"class.std::unique_ptr.177", %"class.std::unique_ptr.185", %"class.std::unique_ptr.193", %"class.std::unique_ptr.201", %"class.std::unique_ptr.209", %"class.std::unique_ptr.217", %"class.std::unique_ptr.225", %"class.std::unique_ptr.233", %"class.std::unique_ptr.241", %"class.std::unique_ptr.249", %"class.std::unique_ptr.257", %"class.std::unique_ptr.265", %"class.std::unique_ptr.273", %"class.std::unique_ptr.281", %"class.std::unique_ptr.289", %"class.std::unique_ptr.297", %"class.std::unique_ptr.305", %"class.std::unique_ptr.313", ptr, ptr, ptr, ptr, ptr, ptr, ptr, ptr, ptr, ptr, ptr, ptr, ptr, ptr, ptr, ptr, ptr, ptr, ptr, ptr, ptr, ptr, ptr, ptr, %"class.std::unique_ptr.321" }
%"class.std::unique_ptr.129" = type { %"struct.std::__uniq_ptr_data.130" }
%"struct.std::__uniq_ptr_data.130" = type { %"class.std::__uniq_ptr_impl.131" }
%"class.std::__uniq_ptr_impl.131" = type { %"class.std::tuple.132" }
%"class.std::tuple.132" = type { %"struct.std::_Tuple_impl.133" }
%"struct.std::_Tuple_impl.133" = type { %"struct.std::_Head_base.136" }
%"struct.std::_Head_base.136" = type { ptr }
%"class.std::unique_ptr.137" = type { %"struct.std::__uniq_ptr_data.138" }
%"struct.std::__uniq_ptr_data.138" = type { %"class.std::__uniq_ptr_impl.139" }
%"class.std::__uniq_ptr_impl.139" = type { %"class.std::tuple.140" }
%"class.std::tuple.140" = type { %"struct.std::_Tuple_impl.141" }
%"struct.std::_Tuple_impl.141" = type { %"struct.std::_Head_base.144" }
%"struct.std::_Head_base.144" = type { ptr }
%"class.std::unique_ptr.145" = type { %"struct.std::__uniq_ptr_data.146" }
%"struct.std::__uniq_ptr_data.146" = type { %"class.std::__uniq_ptr_impl.147" }
%"class.std::__uniq_ptr_impl.147" = type { %"class.std::tuple.148" }
%"class.std::tuple.148" = type { %"struct.std::_Tuple_impl.149" }
%"struct.std::_Tuple_impl.149" = type { %"struct.std::_Head_base.152" }
%"struct.std::_Head_base.152" = type { ptr }
%"class.std::unique_ptr.153" = type { %"struct.std::__uniq_ptr_data.154" }
%"struct.std::__uniq_ptr_data.154" = type { %"class.std::__uniq_ptr_impl.155" }
%"class.std::__uniq_ptr_impl.155" = type { %"class.std::tuple.156" }
%"class.std::tuple.156" = type { %"struct.std::_Tuple_impl.157" }
%"struct.std::_Tuple_impl.157" = type { %"struct.std::_Head_base.160" }
%"struct.std::_Head_base.160" = type { ptr }
%"class.std::unique_ptr.161" = type { %"struct.std::__uniq_ptr_data.162" }
%"struct.std::__uniq_ptr_data.162" = type { %"class.std::__uniq_ptr_impl.163" }
%"class.std::__uniq_ptr_impl.163" = type { %"class.std::tuple.164" }
%"class.std::tuple.164" = type { %"struct.std::_Tuple_impl.165" }
%"struct.std::_Tuple_impl.165" = type { %"struct.std::_Head_base.168" }
%"struct.std::_Head_base.168" = type { ptr }
%"class.std::unique_ptr.169" = type { %"struct.std::__uniq_ptr_data.170" }
%"struct.std::__uniq_ptr_data.170" = type { %"class.std::__uniq_ptr_impl.171" }
%"class.std::__uniq_ptr_impl.171" = type { %"class.std::tuple.172" }
%"class.std::tuple.172" = type { %"struct.std::_Tuple_impl.173" }
%"struct.std::_Tuple_impl.173" = type { %"struct.std::_Head_base.176" }
%"struct.std::_Head_base.176" = type { ptr }
%"class.std::unique_ptr.177" = type { %"struct.std::__uniq_ptr_data.178" }
%"struct.std::__uniq_ptr_data.178" = type { %"class.std::__uniq_ptr_impl.179" }
%"class.std::__uniq_ptr_impl.179" = type { %"class.std::tuple.180" }
%"class.std::tuple.180" = type { %"struct.std::_Tuple_impl.181" }
%"struct.std::_Tuple_impl.181" = type { %"struct.std::_Head_base.184" }
%"struct.std::_Head_base.184" = type { ptr }
%"class.std::unique_ptr.185" = type { %"struct.std::__uniq_ptr_data.186" }
%"struct.std::__uniq_ptr_data.186" = type { %"class.std::__uniq_ptr_impl.187" }
%"class.std::__uniq_ptr_impl.187" = type { %"class.std::tuple.188" }
%"class.std::tuple.188" = type { %"struct.std::_Tuple_impl.189" }
%"struct.std::_Tuple_impl.189" = type { %"struct.std::_Head_base.192" }
%"struct.std::_Head_base.192" = type { ptr }
%"class.std::unique_ptr.193" = type { %"struct.std::__uniq_ptr_data.194" }
%"struct.std::__uniq_ptr_data.194" = type { %"class.std::__uniq_ptr_impl.195" }
%"class.std::__uniq_ptr_impl.195" = type { %"class.std::tuple.196" }
%"class.std::tuple.196" = type { %"struct.std::_Tuple_impl.197" }
%"struct.std::_Tuple_impl.197" = type { %"struct.std::_Head_base.200" }
%"struct.std::_Head_base.200" = type { ptr }
%"class.std::unique_ptr.201" = type { %"struct.std::__uniq_ptr_data.202" }
%"struct.std::__uniq_ptr_data.202" = type { %"class.std::__uniq_ptr_impl.203" }
%"class.std::__uniq_ptr_impl.203" = type { %"class.std::tuple.204" }
%"class.std::tuple.204" = type { %"struct.std::_Tuple_impl.205" }
%"struct.std::_Tuple_impl.205" = type { %"struct.std::_Head_base.208" }
%"struct.std::_Head_base.208" = type { ptr }
%"class.std::unique_ptr.209" = type { %"struct.std::__uniq_ptr_data.210" }
%"struct.std::__uniq_ptr_data.210" = type { %"class.std::__uniq_ptr_impl.211" }
%"class.std::__uniq_ptr_impl.211" = type { %"class.std::tuple.212" }
%"class.std::tuple.212" = type { %"struct.std::_Tuple_impl.213" }
%"struct.std::_Tuple_impl.213" = type { %"struct.std::_Head_base.216" }
%"struct.std::_Head_base.216" = type { ptr }
%"class.std::unique_ptr.217" = type { %"struct.std::__uniq_ptr_data.218" }
%"struct.std::__uniq_ptr_data.218" = type { %"class.std::__uniq_ptr_impl.219" }
%"class.std::__uniq_ptr_impl.219" = type { %"class.std::tuple.220" }
%"class.std::tuple.220" = type { %"struct.std::_Tuple_impl.221" }
%"struct.std::_Tuple_impl.221" = type { %"struct.std::_Head_base.224" }
%"struct.std::_Head_base.224" = type { ptr }
%"class.std::unique_ptr.225" = type { %"struct.std::__uniq_ptr_data.226" }
%"struct.std::__uniq_ptr_data.226" = type { %"class.std::__uniq_ptr_impl.227" }
%"class.std::__uniq_ptr_impl.227" = type { %"class.std::tuple.228" }
%"class.std::tuple.228" = type { %"struct.std::_Tuple_impl.229" }
%"struct.std::_Tuple_impl.229" = type { %"struct.std::_Head_base.232" }
%"struct.std::_Head_base.232" = type { ptr }
%"class.std::unique_ptr.233" = type { %"struct.std::__uniq_ptr_data.234" }
%"struct.std::__uniq_ptr_data.234" = type { %"class.std::__uniq_ptr_impl.235" }
%"class.std::__uniq_ptr_impl.235" = type { %"class.std::tuple.236" }
%"class.std::tuple.236" = type { %"struct.std::_Tuple_impl.237" }
%"struct.std::_Tuple_impl.237" = type { %"struct.std::_Head_base.240" }
%"struct.std::_Head_base.240" = type { ptr }
%"class.std::unique_ptr.241" = type { %"struct.std::__uniq_ptr_data.242" }
%"struct.std::__uniq_ptr_data.242" = type { %"class.std::__uniq_ptr_impl.243" }
%"class.std::__uniq_ptr_impl.243" = type { %"class.std::tuple.244" }
%"class.std::tuple.244" = type { %"struct.std::_Tuple_impl.245" }
%"struct.std::_Tuple_impl.245" = type { %"struct.std::_Head_base.248" }
%"struct.std::_Head_base.248" = type { ptr }
%"class.std::unique_ptr.249" = type { %"struct.std::__uniq_ptr_data.250" }
%"struct.std::__uniq_ptr_data.250" = type { %"class.std::__uniq_ptr_impl.251" }
%"class.std::__uniq_ptr_impl.251" = type { %"class.std::tuple.252" }
%"class.std::tuple.252" = type { %"struct.std::_Tuple_impl.253" }
%"struct.std::_Tuple_impl.253" = type { %"struct.std::_Head_base.256" }
%"struct.std::_Head_base.256" = type { ptr }
%"class.std::unique_ptr.257" = type { %"struct.std::__uniq_ptr_data.258" }
%"struct.std::__uniq_ptr_data.258" = type { %"class.std::__uniq_ptr_impl.259" }
%"class.std::__uniq_ptr_impl.259" = type { %"class.std::tuple.260" }
%"class.std::tuple.260" = type { %"struct.std::_Tuple_impl.261" }
%"struct.std::_Tuple_impl.261" = type { %"struct.std::_Head_base.264" }
%"struct.std::_Head_base.264" = type { ptr }
%"class.std::unique_ptr.265" = type { %"struct.std::__uniq_ptr_data.266" }
%"struct.std::__uniq_ptr_data.266" = type { %"class.std::__uniq_ptr_impl.267" }
%"class.std::__uniq_ptr_impl.267" = type { %"class.std::tuple.268" }
%"class.std::tuple.268" = type { %"struct.std::_Tuple_impl.269" }
%"struct.std::_Tuple_impl.269" = type { %"struct.std::_Head_base.272" }
%"struct.std::_Head_base.272" = type { ptr }
%"class.std::unique_ptr.273" = type { %"struct.std::__uniq_ptr_data.274" }
%"struct.std::__uniq_ptr_data.274" = type { %"class.std::__uniq_ptr_impl.275" }
%"class.std::__uniq_ptr_impl.275" = type { %"class.std::tuple.276" }
%"class.std::tuple.276" = type { %"struct.std::_Tuple_impl.277" }
%"struct.std::_Tuple_impl.277" = type { %"struct.std::_Head_base.280" }
%"struct.std::_Head_base.280" = type { ptr }
%"class.std::unique_ptr.281" = type { %"struct.std::__uniq_ptr_data.282" }
%"struct.std::__uniq_ptr_data.282" = type { %"class.std::__uniq_ptr_impl.283" }
%"class.std::__uniq_ptr_impl.283" = type { %"class.std::tuple.284" }
%"class.std::tuple.284" = type { %"struct.std::_Tuple_impl.285" }
%"struct.std::_Tuple_impl.285" = type { %"struct.std::_Head_base.288" }
%"struct.std::_Head_base.288" = type { ptr }
%"class.std::unique_ptr.289" = type { %"struct.std::__uniq_ptr_data.290" }
%"struct.std::__uniq_ptr_data.290" = type { %"class.std::__uniq_ptr_impl.291" }
%"class.std::__uniq_ptr_impl.291" = type { %"class.std::tuple.292" }
%"class.std::tuple.292" = type { %"struct.std::_Tuple_impl.293" }
%"struct.std::_Tuple_impl.293" = type { %"struct.std::_Head_base.296" }
%"struct.std::_Head_base.296" = type { ptr }
%"class.std::unique_ptr.297" = type { %"struct.std::__uniq_ptr_data.298" }
%"struct.std::__uniq_ptr_data.298" = type { %"class.std::__uniq_ptr_impl.299" }
%"class.std::__uniq_ptr_impl.299" = type { %"class.std::tuple.300" }
%"class.std::tuple.300" = type { %"struct.std::_Tuple_impl.301" }
%"struct.std::_Tuple_impl.301" = type { %"struct.std::_Head_base.304" }
%"struct.std::_Head_base.304" = type { ptr }
%"class.std::unique_ptr.305" = type { %"struct.std::__uniq_ptr_data.306" }
%"struct.std::__uniq_ptr_data.306" = type { %"class.std::__uniq_ptr_impl.307" }
%"class.std::__uniq_ptr_impl.307" = type { %"class.std::tuple.308" }
%"class.std::tuple.308" = type { %"struct.std::_Tuple_impl.309" }
%"struct.std::_Tuple_impl.309" = type { %"struct.std::_Head_base.312" }
%"struct.std::_Head_base.312" = type { ptr }
%"class.std::unique_ptr.313" = type { %"struct.std::__uniq_ptr_data.314" }
%"struct.std::__uniq_ptr_data.314" = type { %"class.std::__uniq_ptr_impl.315" }
%"class.std::__uniq_ptr_impl.315" = type { %"class.std::tuple.316" }
%"class.std::tuple.316" = type { %"struct.std::_Tuple_impl.317" }
%"struct.std::_Tuple_impl.317" = type { %"struct.std::_Head_base.320" }
%"struct.std::_Head_base.320" = type { ptr }
%"class.std::unique_ptr.321" = type { %"struct.std::__uniq_ptr_data.322" }
%"struct.std::__uniq_ptr_data.322" = type { %"class.std::__uniq_ptr_impl.323" }
%"class.std::__uniq_ptr_impl.323" = type { %"class.std::tuple.324" }
%"class.std::tuple.324" = type { %"struct.std::_Tuple_impl.325" }
%"struct.std::_Tuple_impl.325" = type { %"struct.std::_Head_base.328" }
%"struct.std::_Head_base.328" = type { ptr }
%"struct.cvc5::internal::options::HolderBV" = type <{ i32, i8, i8, i8, i8, i32, i8, i8, i8, i8, i8, i8, i8, i8, i8, i8, i8, i8, i8, i8, i8, i8, i32, i8, [3 x i8], i32, i8, i8, i8, i8 }>

; Function Attrs: mustprogress nounwind uwtable
define linkonce_odr hidden noundef nonnull align 8 dereferenceable(8) ptr @_ZNSt10_Head_baseILm0EPN4cvc58internal6theory2bv14NodeBitblasterELb0EE7_M_headERKS6_(ptr noundef nonnull align 8 dereferenceable(8) %__b) #4 comdat align 2 {
entry:
  %__b.addr = alloca ptr, align 8
  store ptr %__b, ptr %__b.addr, align 8
  %0 = load ptr, ptr %__b.addr, align 8
  %_M_head_impl = getelementptr inbounds %"struct.std::_Head_base.1", ptr %0, i32 0, i32 0
  ret ptr %_M_head_impl
}

; Function Attrs: mustprogress nounwind uwtable
define linkonce_odr hidden noundef nonnull align 8 dereferenceable(8) ptr @_ZNSt11_Tuple_implILm0EJPN4cvc58internal6theory2bv14NodeBitblasterESt14default_deleteIS4_EEE7_M_headERKS8_(ptr noundef nonnull align 8 dereferenceable(8) %__t) #4 comdat align 2 {
entry:
  %__t.addr = alloca ptr, align 8
  store ptr %__t, ptr %__t.addr, align 8
  %0 = load ptr, ptr %__t.addr, align 8
  %call = call noundef nonnull align 8 dereferenceable(8) ptr @_ZNSt10_Head_baseILm0EPN4cvc58internal6theory2bv14NodeBitblasterELb0EE7_M_headERKS6_(ptr noundef nonnull align 8 dereferenceable(8) %0) #3
  ret ptr %call
}

; Function Attrs: mustprogress nounwind uwtable
define linkonce_odr hidden noundef nonnull align 8 dereferenceable(8) ptr @_ZSt12__get_helperILm0EPN4cvc58internal6theory2bv14NodeBitblasterEJSt14default_deleteIS4_EEERKT0_RKSt11_Tuple_implIXT_EJS8_DpT1_EE(ptr noundef nonnull align 8 dereferenceable(8) %__t) #4 comdat {
entry:
  %__t.addr = alloca ptr, align 8
  store ptr %__t, ptr %__t.addr, align 8
  %0 = load ptr, ptr %__t.addr, align 8
  %call = call noundef nonnull align 8 dereferenceable(8) ptr @_ZNSt11_Tuple_implILm0EJPN4cvc58internal6theory2bv14NodeBitblasterESt14default_deleteIS4_EEE7_M_headERKS8_(ptr noundef nonnull align 8 dereferenceable(8) %0) #3
  ret ptr %call
}

; Function Attrs: mustprogress nounwind uwtable
define linkonce_odr hidden noundef nonnull align 8 dereferenceable(8) ptr @_ZSt3getILm0EJPN4cvc58internal6theory2bv14NodeBitblasterESt14default_deleteIS4_EEERKNSt13tuple_elementIXT_ESt5tupleIJDpT0_EEE4typeERKSC_(ptr noundef nonnull align 8 dereferenceable(8) %__t) #4 comdat {
entry:
  %__t.addr = alloca ptr, align 8
  store ptr %__t, ptr %__t.addr, align 8
  %0 = load ptr, ptr %__t.addr, align 8
  %call = call noundef nonnull align 8 dereferenceable(8) ptr @_ZSt12__get_helperILm0EPN4cvc58internal6theory2bv14NodeBitblasterEJSt14default_deleteIS4_EEERKT0_RKSt11_Tuple_implIXT_EJS8_DpT1_EE(ptr noundef nonnull align 8 dereferenceable(8) %0) #3
  ret ptr %call
}

; Function Attrs: mustprogress nounwind uwtable
define linkonce_odr hidden noundef ptr @_ZNKSt15__uniq_ptr_implIN4cvc58internal6theory2bv14NodeBitblasterESt14default_deleteIS4_EE6_M_ptrEv(ptr noundef nonnull align 8 dereferenceable(8) %this) #4 comdat align 2 {
entry:
  %this.addr = alloca ptr, align 8
  store ptr %this, ptr %this.addr, align 8
  %this1 = load ptr, ptr %this.addr, align 8
  %_M_t = getelementptr inbounds %"class.std::__uniq_ptr_impl", ptr %this1, i32 0, i32 0
  %call = call noundef nonnull align 8 dereferenceable(8) ptr @_ZSt3getILm0EJPN4cvc58internal6theory2bv14NodeBitblasterESt14default_deleteIS4_EEERKNSt13tuple_elementIXT_ESt5tupleIJDpT0_EEE4typeERKSC_(ptr noundef nonnull align 8 dereferenceable(8) %_M_t) #3
  %0 = load ptr, ptr %call, align 8
  ret ptr %0
}

; Function Attrs: mustprogress nounwind uwtable
define linkonce_odr hidden noundef ptr @_ZNKSt10unique_ptrIN4cvc58internal6theory2bv14NodeBitblasterESt14default_deleteIS4_EE3getEv(ptr noundef nonnull align 8 dereferenceable(8) %this) #4 comdat align 2 {
entry:
  %this.addr = alloca ptr, align 8
  store ptr %this, ptr %this.addr, align 8
  %this1 = load ptr, ptr %this.addr, align 8
  %_M_t = getelementptr inbounds %"class.std::unique_ptr", ptr %this1, i32 0, i32 0
  %call = call noundef ptr @_ZNKSt15__uniq_ptr_implIN4cvc58internal6theory2bv14NodeBitblasterESt14default_deleteIS4_EE6_M_ptrEv(ptr noundef nonnull align 8 dereferenceable(8) %_M_t) #3
  ret ptr %call
}

; Function Attrs: mustprogress nounwind uwtable
define linkonce_odr hidden noundef ptr @_ZNKSt10unique_ptrIN4cvc58internal6theory2bv14NodeBitblasterESt14default_deleteIS4_EEptEv(ptr noundef nonnull align 8 dereferenceable(8) %this) #4 comdat align 2 {
entry:
  %this.addr = alloca ptr, align 8
  store ptr %this, ptr %this.addr, align 8
  %this1 = load ptr, ptr %this.addr, align 8
  %call = call noundef ptr @_ZNKSt10unique_ptrIN4cvc58internal6theory2bv14NodeBitblasterESt14default_deleteIS4_EE3getEv(ptr noundef nonnull align 8 dereferenceable(8) %this1) #3
  ret ptr %call
}

; Function Attrs: mustprogress uwtable
define hidden void @_ZN4cvc58internal6theory2bv16BVSolverBitblast20computeRelevantTermsERSt3setINS0_12NodeTemplateILb1EEESt4lessIS6_ESaIS6_EE(ptr noundef nonnull align 8 dereferenceable(680) %this, ptr noundef nonnull align 8 dereferenceable(48) %termSet) unnamed_addr #5 align 2 {
entry:
  %this.addr = alloca ptr, align 8
  %termSet.addr = alloca ptr, align 8
  store ptr %this, ptr %this.addr, align 8
  store ptr %termSet, ptr %termSet.addr, align 8
  %this1 = load ptr, ptr %this.addr, align 8
  %call = call noundef nonnull align 8 dereferenceable(392) ptr @_ZNK4cvc58internal6EnvObj7optionsEv(ptr noundef nonnull align 8 dereferenceable(16) %this1)
  %bv = getelementptr inbounds %"class.cvc5::internal::Options", ptr %call, i32 0, i32 29
  %0 = load ptr, ptr %bv, align 8
  %bitblastMode = getelementptr inbounds %"struct.cvc5::internal::options::HolderBV", ptr %0, i32 0, i32 0
  %1 = load i32, ptr %bitblastMode, align 4
  %cmp = icmp eq i32 %1, 1
  br i1 %cmp, label %if.then, label %if.end

if.then:                                          ; preds = %entry
  %d_bitblaster = getelementptr inbounds %"class.cvc5::internal::theory::bv::BVSolverBitblast", ptr %this1, i32 0, i32 1
  %call2 = call noundef ptr @_ZNKSt10unique_ptrIN4cvc58internal6theory2bv14NodeBitblasterESt14default_deleteIS4_EEptEv(ptr noundef nonnull align 8 dereferenceable(8) %d_bitblaster) #3
  %2 = load ptr, ptr %termSet.addr, align 8
  call void @_ZN4cvc58internal6theory2bv14NodeBitblaster20computeRelevantTermsERSt3setINS0_12NodeTemplateILb1EEESt4lessIS6_ESaIS6_EE(ptr noundef nonnull align 8 dereferenceable(6112) %call2, ptr noundef nonnull align 8 dereferenceable(48) %2)
  br label %if.end

if.end:                                           ; preds = %if.then, %entry
  ret void
}