; Function Attrs: mustprogress uwtable
define hidden void @_ZN4cvc58internal6theory2bv16BVSolverBitblast20computeRelevantTermsERSt3setINS0_12NodeTemplateILb1EEESt4lessIS6_ESaIS6_EE(ptr noundef nonnull align 8 dereferenceable(680) %this, ptr noundef nonnull align 8 dereferenceable(48) %termSet) unnamed_addr #3 align 2 {
entry:
  %call = tail call noundef nonnull align 8 dereferenceable(392) ptr @_ZNK4cvc58internal6EnvObj7optionsEv(ptr noundef nonnull align 8 dereferenceable(16) %this)
  %bv = getelementptr inbounds i8, ptr %call, i64 232
  %0 = load ptr, ptr %bv, align 8
  %1 = load i32, ptr %0, align 4
  %cmp = icmp eq i32 %1, 1
  br i1 %cmp, label %if.then, label %if.end

if.then:                                          ; preds = %entry
  %d_bitblaster = getelementptr inbounds i8, ptr %this, i64 32
  %2 = load ptr, ptr %d_bitblaster, align 8
  tail call void @_ZN4cvc58internal6theory2bv14NodeBitblaster20computeRelevantTermsERSt3setINS0_12NodeTemplateILb1EEESt4lessIS6_ESaIS6_EE(ptr noundef nonnull align 8 dereferenceable(6112) %2, ptr noundef nonnull align 8 dereferenceable(48) %termSet)
  br label %if.end

if.end:                                           ; preds = %if.then, %entry
  ret void
}